target datalayout = "e-m:e-p270:32:32-p271:32:32-p272:64:64-i64:64-i128:128-f80:128-n8:16:32:64-S128"
target triple = "x86_64-pc-linux-gnu"

%"class.std::__cxx11::basic_string" = type { %"struct.std::__cxx11::basic_string<char>::_Alloc_hider", i64, %union.anon }
%"struct.std::__cxx11::basic_string<char>::_Alloc_hider" = type { ptr }
%union.anon = type { i64, [8 x i8] }
%"class.mold::MappedFile" = type { %"class.std::__cxx11::basic_string", ptr, i64, i8, ptr, ptr, i8, i32 }

; Function Attrs: mustprogress nounwind
define dso_local void @_ZN4mold10MappedFile8close_fdEv(ptr noundef nonnull align 8 dereferenceable(80) %0) #4 align 2 {
  %2 = alloca ptr, align 8
  store ptr %0, ptr %2, align 8, !tbaa !19
  %3 = load ptr, ptr %2, align 8
  %4 = getelementptr inbounds nuw %"class.mold::MappedFile", ptr %3, i32 0, i32 7
  %5 = load i32, ptr %4, align 4, !tbaa !40
  %6 = icmp eq i32 %5, -1
  br i1 %6, label %7, label %8

7:                                                ; preds = %1
  br label %13

8:                                                ; preds = %1
  %9 = getelementptr inbounds nuw %"class.mold::MappedFile", ptr %3, i32 0, i32 7
  %10 = load i32, ptr %9, align 4, !tbaa !40
  %11 = call i32 @close(i32 noundef %10)
  %12 = getelementptr inbounds nuw %"class.mold::MappedFile", ptr %3, i32 0, i32 7
  store i32 -1, ptr %12, align 4, !tbaa !40
  br label %13

13:                                               ; preds = %8, %7
  ret void
}