; Function Attrs: mustprogress nounwind
define dso_local void @_ZN4mold10MappedFile8close_fdEv(ptr noundef nonnull align 8 captures(none) dereferenceable(80) %0) local_unnamed_addr #4 align 2 {
  %2 = getelementptr inbounds nuw i8, ptr %0, i64 76
  %3 = load i32, ptr %2, align 4, !tbaa !30
  %4 = icmp eq i32 %3, -1
  br i1 %4, label %7, label %5

5:                                                ; preds = %1
  %6 = tail call i32 @close(i32 noundef %3) #21
  store i32 -1, ptr %2, align 4, !tbaa !30
  br label %7

7:                                                ; preds = %1, %5
  ret void
}